target datalayout = "e-m:e-p270:32:32-p271:32:32-p272:64:64-i64:64-i128:128-f80:128-n8:16:32:64-S128"
target triple = "x86_64-pc-linux-gnu"

%struct.evhttp_connection = type { %struct.anon, ptr, %struct.event, ptr, i16, ptr, i16, ptr, i64, i64, i32, %struct.timeval, %struct.timeval, %struct.timeval, i32, i32, %struct.timeval, i32, ptr, %struct.evcon_requestq, ptr, ptr, ptr, ptr, %struct.event_callback, ptr, ptr, i32, ptr }
%struct.anon = type { ptr, ptr }
%struct.event = type { %struct.event_callback, %union.anon.1, i32, i16, i16, ptr, %union.anon.3, %struct.timeval }
%union.anon.1 = type { %struct.anon.2 }
%struct.anon.2 = type { ptr, ptr }
%union.anon.3 = type { %struct.anon.4 }
%struct.anon.4 = type { %struct.anon.5, %struct.timeval }
%struct.anon.5 = type { ptr, ptr }
%struct.timeval = type { i64, i64 }
%struct.evcon_requestq = type { ptr, ptr }
%struct.event_callback = type { %struct.anon.0, i16, i8, i8, %union.anon, ptr }
%struct.anon.0 = type { ptr, ptr }
%union.anon = type { ptr }

@event_debug_logging_mask_ = external global i32, align 4
@.str.61 = private unnamed_addr constant [32 x i8] c"%s: connected to \22%s:%d\22 on %d\0A\00", align 1
@__func__.evhttp_connection_cb = private unnamed_addr constant [21 x i8] c"evhttp_connection_cb\00", align 1

; Function Attrs: nounwind uwtable
define internal void @evhttp_connection_cb(ptr noundef %0, i16 noundef signext %1, ptr noundef %2) #0 {
  %4 = alloca ptr, align 8
  %5 = alloca i16, align 2
  %6 = alloca ptr, align 8
  %7 = alloca ptr, align 8
  %8 = alloca i32, align 4
  store ptr %0, ptr %4, align 8
  store i16 %1, ptr %5, align 2
  store ptr %2, ptr %6, align 8
  call void @llvm.lifetime.start.p0(i64 8, ptr %7) #11
  %9 = load ptr, ptr %6, align 8
  store ptr %9, ptr %7, align 8
  %10 = load i16, ptr %5, align 2
  %11 = sext i16 %10 to i32
  %12 = and i32 %11, 128
  %13 = icmp ne i32 %12, 0
  br i1 %13, label %23, label %14

14:                                               ; preds = %3
  %15 = call ptr @__errno_location() #13
  %16 = load i32, ptr %15, align 4
  %17 = icmp eq i32 %16, 111
  br i1 %17, label %18, label %19

18:                                               ; preds = %14
  br label %57

19:                                               ; preds = %14
  %20 = load ptr, ptr %4, align 8
  %21 = load i16, ptr %5, align 2
  %22 = load ptr, ptr %6, align 8
  call void @evhttp_error_cb(ptr noundef %20, i16 noundef signext %21, ptr noundef %22)
  store i32 1, ptr %8, align 4
  br label %59

23:                                               ; preds = %3
  br label %24

24:                                               ; preds = %23
  %25 = load i32, ptr @event_debug_logging_mask_, align 4
  %26 = icmp ne i32 %25, 0
  br i1 %26, label %27, label %37

27:                                               ; preds = %24
  %28 = load ptr, ptr %7, align 8
  %29 = getelementptr inbounds nuw %struct.evhttp_connection, ptr %28, i32 0, i32 5
  %30 = load ptr, ptr %29, align 8
  %31 = load ptr, ptr %7, align 8
  %32 = getelementptr inbounds nuw %struct.evhttp_connection, ptr %31, i32 0, i32 6
  %33 = load i16, ptr %32, align 8
  %34 = zext i16 %33 to i32
  %35 = load ptr, ptr %4, align 8
  %36 = call i32 @bufferevent_getfd(ptr noundef %35)
  call void (ptr, ...) @event_debugx_(ptr noundef @.str.61, ptr noundef @__func__.evhttp_connection_cb, ptr noundef %30, i32 noundef %34, i32 noundef %36)
  br label %37

37:                                               ; preds = %27, %24
  br label %38

38:                                               ; preds = %37
  br label %39

39:                                               ; preds = %38
  %40 = load ptr, ptr %7, align 8
  %41 = getelementptr inbounds nuw %struct.evhttp_connection, ptr %40, i32 0, i32 14
  store i32 0, ptr %41, align 8
  %42 = load ptr, ptr %7, align 8
  %43 = getelementptr inbounds nuw %struct.evhttp_connection, ptr %42, i32 0, i32 17
  store i32 2, ptr %43, align 8
  %44 = load ptr, ptr %7, align 8
  %45 = getelementptr inbounds nuw %struct.evhttp_connection, ptr %44, i32 0, i32 1
  %46 = load ptr, ptr %45, align 8
  %47 = load ptr, ptr %7, align 8
  call void @bufferevent_setcb(ptr noundef %46, ptr noundef @evhttp_read_cb, ptr noundef @evhttp_write_cb, ptr noundef @evhttp_error_cb, ptr noundef %47)
  %48 = load ptr, ptr %7, align 8
  %49 = getelementptr inbounds nuw %struct.evhttp_connection, ptr %48, i32 0, i32 1
  %50 = load ptr, ptr %49, align 8
  %51 = load ptr, ptr %7, align 8
  %52 = getelementptr inbounds nuw %struct.evhttp_connection, ptr %51, i32 0, i32 12
  %53 = load ptr, ptr %7, align 8
  %54 = getelementptr inbounds nuw %struct.evhttp_connection, ptr %53, i32 0, i32 13
  %55 = call i32 @bufferevent_set_timeouts(ptr noundef %50, ptr noundef %52, ptr noundef %54)
  %56 = load ptr, ptr %7, align 8
  call void @evhttp_request_dispatch(ptr noundef %56)
  store i32 1, ptr %8, align 4
  br label %59

57:                                               ; preds = %18
  %58 = load ptr, ptr %7, align 8
  call void @evhttp_connection_cb_cleanup(ptr noundef %58)
  store i32 0, ptr %8, align 4
  br label %59

59:                                               ; preds = %57, %39, %19
  call void @llvm.lifetime.end.p0(i64 8, ptr %7) #11
  %60 = load i32, ptr %8, align 4
  switch i32 %60, label %62 [
    i32 0, label %61
    i32 1, label %61
  ]

61:                                               ; preds = %59, %59
  ret void

62:                                               ; preds = %59
  unreachable
}