; Function Attrs: nounwind uwtable
define internal void @evhttp_connection_cb(ptr noundef %0, i16 noundef signext %1, ptr noundef %2) #0 {
  %4 = and i16 %1, 128
  %.not = icmp eq i16 %4, 0
  br i1 %.not, label %5, label %10

5:                                                ; preds = %3
  %6 = tail call ptr @__errno_location() #19
  %7 = load i32, ptr %6, align 4
  %8 = icmp eq i32 %7, 111
  br i1 %8, label %28, label %9

9:                                                ; preds = %5
  tail call void @evhttp_error_cb(ptr noundef %0, i16 noundef signext %1, ptr noundef %2)
  br label %29

10:                                               ; preds = %3
  %11 = load i32, ptr @event_debug_logging_mask_, align 4
  %.not16 = icmp eq i32 %11, 0
  br i1 %.not16, label %19, label %12

12:                                               ; preds = %10
  %13 = getelementptr inbounds nuw i8, ptr %2, i64 160
  %14 = load ptr, ptr %13, align 8
  %15 = getelementptr inbounds nuw i8, ptr %2, i64 168
  %16 = load i16, ptr %15, align 8
  %17 = zext i16 %16 to i32
  %18 = tail call i32 @bufferevent_getfd(ptr noundef %0) #18
  tail call void (ptr, ...) @event_debugx_(ptr noundef nonnull @.str.61, ptr noundef nonnull @__func__.evhttp_connection_cb, ptr noundef %14, i32 noundef %17, i32 noundef %18) #18
  br label %19

19:                                               ; preds = %12, %10
  %20 = getelementptr inbounds nuw i8, ptr %2, i64 256
  store i32 0, ptr %20, align 8
  %21 = getelementptr inbounds nuw i8, ptr %2, i64 280
  store i32 2, ptr %21, align 8
  %22 = getelementptr inbounds nuw i8, ptr %2, i64 16
  %23 = load ptr, ptr %22, align 8
  tail call void @bufferevent_setcb(ptr noundef %23, ptr noundef nonnull @evhttp_read_cb, ptr noundef nonnull @evhttp_write_cb, ptr noundef nonnull @evhttp_error_cb, ptr noundef %2) #18
  %24 = load ptr, ptr %22, align 8
  %25 = getelementptr inbounds nuw i8, ptr %2, i64 224
  %26 = getelementptr inbounds nuw i8, ptr %2, i64 240
  %27 = tail call i32 @bufferevent_set_timeouts(ptr noundef %24, ptr noundef nonnull %25, ptr noundef nonnull %26) #18
  tail call fastcc void @evhttp_request_dispatch(ptr noundef %2)
  br label %29

28:                                               ; preds = %5
  tail call fastcc void @evhttp_connection_cb_cleanup(ptr noundef %2)
  br label %29

29:                                               ; preds = %28, %19, %9
  ret void
}